target datalayout = "e-m:e-p270:32:32-p271:32:32-p272:64:64-i64:64-i128:128-f80:128-n8:16:32:64-S128"
target triple = "x86_64-pc-linux-gnu"

%struct.AVFormatContext = type { ptr, ptr, ptr, ptr, ptr, i32, i32, ptr, i32, ptr, i32, ptr, ptr, i64, i64, i64, i32, i32, i32, i64, i64, ptr, i32, i32, ptr, i32, i32, i32, i32, ptr, i64, i32, i32, %struct.AVIOInterruptCB, i32, i32, i32, i32, i64, i32, i32, i32, i32, i32, i32, i32, i32, i32, i32, i32, i32, i64, i32, i32, i32, i32, i32, ptr, ptr, ptr, ptr, i32, ptr, ptr, ptr, ptr, i32, ptr, ptr, i64, ptr, ptr, ptr, i64 }
%struct.AVIOInterruptCB = type { ptr, ptr }
%struct.SAPState = type { ptr, ptr, %struct.FFIOContext, i16, ptr, i32 }
%struct.FFIOContext = type { %struct.AVIOContext, ptr, i32, i32, i64, i64, i64, i64, i32, i32, i32, i64 }
%struct.AVIOContext = type { ptr, ptr, i32, ptr, ptr, ptr, ptr, ptr, ptr, i64, i32, i32, i32, i32, i32, i64, ptr, ptr, ptr, ptr, i32, i32, ptr, ptr, ptr, i32, ptr, i64, i64 }
%struct.AVStream = type { ptr, i32, i32, ptr, ptr, %struct.AVRational, i64, i64, i64, i32, i32, %struct.AVRational, ptr, %struct.AVRational, %struct.AVPacket, i32, %struct.AVRational, i32 }
%struct.AVPacket = type { ptr, i64, i64, ptr, i32, i32, i32, ptr, i32, i64, i64, ptr, ptr, %struct.AVRational }
%struct.AVRational = type { i32, i32 }
%struct.pollfd = type { i32, i16, i16 }

; Function Attrs: alwaysinline nounwind willreturn memory(none) uwtable
define internal zeroext i16 @av_bswap16(i16 noundef zeroext %0) #4 {
  %2 = alloca i16, align 2
  store i16 %0, ptr %2, align 2, !tbaa !74
  %3 = load i16, ptr %2, align 2, !tbaa !74
  %4 = zext i16 %3 to i32
  %5 = ashr i32 %4, 8
  %6 = load i16, ptr %2, align 2, !tbaa !74
  %7 = zext i16 %6 to i32
  %8 = shl i32 %7, 8
  %9 = or i32 %5, %8
  %10 = trunc i32 %9 to i16
  store i16 %10, ptr %2, align 2, !tbaa !74
  %11 = load i16, ptr %2, align 2, !tbaa !74
  ret i16 %11
}

; Function Attrs: inlinehint nounwind uwtable
define internal i32 @ffurl_read(ptr noundef %0, ptr noundef %1, i32 noundef %2) #3 {
  %4 = alloca ptr, align 8
  %5 = alloca ptr, align 8
  %6 = alloca i32, align 4
  store ptr %0, ptr %4, align 8, !tbaa !76
  store ptr %1, ptr %5, align 8, !tbaa !77
  store i32 %2, ptr %6, align 4, !tbaa !33
  %7 = load ptr, ptr %4, align 8, !tbaa !76
  %8 = load ptr, ptr %5, align 8, !tbaa !77
  %9 = load i32, ptr %6, align 4, !tbaa !33
  %10 = call i32 @ffurl_read2(ptr noundef %7, ptr noundef %8, i32 noundef %9)
  ret i32 %10
}

; Function Attrs: nounwind uwtable
define internal i32 @sap_fetch_packet(ptr noundef %0, ptr noundef %1) #0 {
  %3 = alloca i32, align 4
  %4 = alloca ptr, align 8
  %5 = alloca ptr, align 8
  %6 = alloca ptr, align 8
  %7 = alloca i32, align 4
  %8 = alloca i32, align 4
  %9 = alloca i32, align 4
  %10 = alloca %struct.pollfd, align 4
  %11 = alloca [8192 x i8], align 16
  %12 = alloca i32, align 4
  %13 = alloca i16, align 2
  %14 = alloca i32, align 4
  %15 = alloca ptr, align 8
  store ptr %0, ptr %4, align 8, !tbaa !13
  store ptr %1, ptr %5, align 8, !tbaa !67
  call void @llvm.lifetime.start.p0(i64 8, ptr %6) #7
  %16 = load ptr, ptr %4, align 8, !tbaa !13
  %17 = getelementptr inbounds nuw %struct.AVFormatContext, ptr %16, i32 0, i32 3
  %18 = load ptr, ptr %17, align 8, !tbaa !15
  store ptr %18, ptr %6, align 8, !tbaa !30
  call void @llvm.lifetime.start.p0(i64 4, ptr %7) #7
  %19 = load ptr, ptr %6, align 8, !tbaa !30
  %20 = getelementptr inbounds nuw %struct.SAPState, ptr %19, i32 0, i32 0
  %21 = load ptr, ptr %20, align 8, !tbaa !37
  %22 = call i32 @ffurl_get_file_handle(ptr noundef %21)
  store i32 %22, ptr %7, align 4, !tbaa !33
  call void @llvm.lifetime.start.p0(i64 4, ptr %8) #7
  call void @llvm.lifetime.start.p0(i64 4, ptr %9) #7
  call void @llvm.lifetime.start.p0(i64 8, ptr %10) #7
  %23 = getelementptr inbounds nuw %struct.pollfd, ptr %10, i32 0, i32 0
  %24 = load i32, ptr %7, align 4, !tbaa !33
  store i32 %24, ptr %23, align 4, !tbaa !69
  %25 = getelementptr inbounds nuw %struct.pollfd, ptr %10, i32 0, i32 1
  store i16 1, ptr %25, align 4, !tbaa !71
  %26 = getelementptr inbounds nuw %struct.pollfd, ptr %10, i32 0, i32 2
  store i16 0, ptr %26, align 2, !tbaa !72
  call void @llvm.lifetime.start.p0(i64 8192, ptr %11) #7
  %27 = load i32, ptr %7, align 4, !tbaa !33
  %28 = icmp slt i32 %27, 0
  br i1 %28, label %29, label %31

29:                                               ; preds = %2
  %30 = load i32, ptr %7, align 4, !tbaa !33
  store i32 %30, ptr %3, align 4
  store i32 1, ptr %12, align 4
  br label %156

31:                                               ; preds = %2
  %32 = load ptr, ptr %6, align 8, !tbaa !30
  %33 = getelementptr inbounds nuw %struct.SAPState, ptr %32, i32 0, i32 5
  %34 = load i32, ptr %33, align 8, !tbaa !73
  %35 = icmp ne i32 %34, 0
  br i1 %35, label %36, label %37

36:                                               ; preds = %31
  store i32 -541478725, ptr %3, align 4
  store i32 1, ptr %12, align 4
  br label %156

37:                                               ; preds = %31
  br label %38

38:                                               ; preds = %82, %37
  br label %39

39:                                               ; preds = %38
  %40 = call i32 @poll(ptr noundef %10, i64 noundef 1, i32 noundef 0)
  store i32 %40, ptr %8, align 4, !tbaa !33
  %41 = load i32, ptr %8, align 4, !tbaa !33
  %42 = icmp sle i32 %41, 0
  br i1 %42, label %49, label %43

43:                                               ; preds = %39
  %44 = getelementptr inbounds nuw %struct.pollfd, ptr %10, i32 0, i32 2
  %45 = load i16, ptr %44, align 2, !tbaa !72
  %46 = sext i16 %45 to i32
  %47 = and i32 %46, 1
  %48 = icmp ne i32 %47, 0
  br i1 %48, label %50, label %49

49:                                               ; preds = %43, %39
  br label %83

50:                                               ; preds = %43
  %51 = load ptr, ptr %6, align 8, !tbaa !30
  %52 = getelementptr inbounds nuw %struct.SAPState, ptr %51, i32 0, i32 0
  %53 = load ptr, ptr %52, align 8, !tbaa !37
  %54 = getelementptr inbounds [8192 x i8], ptr %11, i64 0, i64 0
  %55 = call i32 @ffurl_read(ptr noundef %53, ptr noundef %54, i32 noundef 8192)
  store i32 %55, ptr %9, align 4, !tbaa !33
  %56 = load i32, ptr %9, align 4, !tbaa !33
  %57 = icmp sge i32 %56, 8
  br i1 %57, label %58, label %82

58:                                               ; preds = %50
  call void @llvm.lifetime.start.p0(i64 2, ptr %13) #7
  %59 = getelementptr inbounds [8192 x i8], ptr %11, i64 0, i64 2
  %60 = load i16, ptr %59, align 2, !tbaa !34
  %61 = call zeroext i16 @av_bswap16(i16 noundef zeroext %60) #8
  store i16 %61, ptr %13, align 2, !tbaa !74
  %62 = getelementptr inbounds [8192 x i8], ptr %11, i64 0, i64 0
  %63 = load i8, ptr %62, align 16, !tbaa !34
  %64 = zext i8 %63 to i32
  %65 = and i32 %64, 4
  %66 = icmp ne i32 %65, 0
  br i1 %66, label %67, label %78

67:                                               ; preds = %58
  %68 = load i16, ptr %13, align 2, !tbaa !74
  %69 = zext i16 %68 to i32
  %70 = load ptr, ptr %6, align 8, !tbaa !30
  %71 = getelementptr inbounds nuw %struct.SAPState, ptr %70, i32 0, i32 3
  %72 = load i16, ptr %71, align 8, !tbaa !43
  %73 = zext i16 %72 to i32
  %74 = icmp eq i32 %69, %73
  br i1 %74, label %75, label %78

75:                                               ; preds = %67
  %76 = load ptr, ptr %6, align 8, !tbaa !30
  %77 = getelementptr inbounds nuw %struct.SAPState, ptr %76, i32 0, i32 5
  store i32 1, ptr %77, align 8, !tbaa !73
  store i32 -541478725, ptr %3, align 4
  store i32 1, ptr %12, align 4
  br label %79

78:                                               ; preds = %67, %58
  store i32 0, ptr %12, align 4
  br label %79

79:                                               ; preds = %78, %75
  call void @llvm.lifetime.end.p0(i64 2, ptr %13) #7
  %80 = load i32, ptr %12, align 4
  switch i32 %80, label %156 [
    i32 0, label %81
  ]

81:                                               ; preds = %79
  br label %82

82:                                               ; preds = %81, %50
  br label %38

83:                                               ; preds = %49
  %84 = load ptr, ptr %6, align 8, !tbaa !30
  %85 = getelementptr inbounds nuw %struct.SAPState, ptr %84, i32 0, i32 1
  %86 = load ptr, ptr %85, align 8, !tbaa !46
  %87 = load ptr, ptr %5, align 8, !tbaa !67
  %88 = call i32 @av_read_frame(ptr noundef %86, ptr noundef %87)
  store i32 %88, ptr %9, align 4, !tbaa !33
  %89 = load i32, ptr %9, align 4, !tbaa !33
  %90 = icmp slt i32 %89, 0
  br i1 %90, label %91, label %93

91:                                               ; preds = %83
  %92 = load i32, ptr %9, align 4, !tbaa !33
  store i32 %92, ptr %3, align 4
  store i32 1, ptr %12, align 4
  br label %156

93:                                               ; preds = %83
  %94 = load ptr, ptr %4, align 8, !tbaa !13
  %95 = getelementptr inbounds nuw %struct.AVFormatContext, ptr %94, i32 0, i32 5
  %96 = load i32, ptr %95, align 8, !tbaa !51
  %97 = and i32 %96, 1
  %98 = icmp ne i32 %97, 0
  br i1 %98, label %99, label %154

99:                                               ; preds = %93
  br label %100

100:                                              ; preds = %152, %99
  %101 = load ptr, ptr %6, align 8, !tbaa !30
  %102 = getelementptr inbounds nuw %struct.SAPState, ptr %101, i32 0, i32 1
  %103 = load ptr, ptr %102, align 8, !tbaa !46
  %104 = getelementptr inbounds nuw %struct.AVFormatContext, ptr %103, i32 0, i32 6
  %105 = load i32, ptr %104, align 4, !tbaa !52
  %106 = load ptr, ptr %4, align 8, !tbaa !13
  %107 = getelementptr inbounds nuw %struct.AVFormatContext, ptr %106, i32 0, i32 6
  %108 = load i32, ptr %107, align 4, !tbaa !52
  %109 = icmp ugt i32 %105, %108
  br i1 %109, label %110, label %153

110:                                              ; preds = %100
  call void @llvm.lifetime.start.p0(i64 4, ptr %14) #7
  %111 = load ptr, ptr %4, align 8, !tbaa !13
  %112 = getelementptr inbounds nuw %struct.AVFormatContext, ptr %111, i32 0, i32 6
  %113 = load i32, ptr %112, align 4, !tbaa !52
  store i32 %113, ptr %14, align 4, !tbaa !33
  call void @llvm.lifetime.start.p0(i64 8, ptr %15) #7
  %114 = load ptr, ptr %4, align 8, !tbaa !13
  %115 = call ptr @avformat_new_stream(ptr noundef %114, ptr noundef null)
  store ptr %115, ptr %15, align 8, !tbaa !53
  %116 = load ptr, ptr %15, align 8, !tbaa !53
  %117 = icmp ne ptr %116, null
  br i1 %117, label %119, label %118

118:                                              ; preds = %110
  store i32 -12, ptr %3, align 4
  store i32 1, ptr %12, align 4
  br label %150

119:                                              ; preds = %110
  %120 = load i32, ptr %14, align 4, !tbaa !33
  %121 = load ptr, ptr %15, align 8, !tbaa !53
  %122 = getelementptr inbounds nuw %struct.AVStream, ptr %121, i32 0, i32 2
  store i32 %120, ptr %122, align 4, !tbaa !55
  %123 = load ptr, ptr %15, align 8, !tbaa !53
  %124 = getelementptr inbounds nuw %struct.AVStream, ptr %123, i32 0, i32 3
  %125 = load ptr, ptr %124, align 8, !tbaa !62
  %126 = load ptr, ptr %6, align 8, !tbaa !30
  %127 = getelementptr inbounds nuw %struct.SAPState, ptr %126, i32 0, i32 1
  %128 = load ptr, ptr %127, align 8, !tbaa !46
  %129 = getelementptr inbounds nuw %struct.AVFormatContext, ptr %128, i32 0, i32 7
  %130 = load ptr, ptr %129, align 8, !tbaa !63
  %131 = load i32, ptr %14, align 4, !tbaa !33
  %132 = sext i32 %131 to i64
  %133 = getelementptr inbounds ptr, ptr %130, i64 %132
  %134 = load ptr, ptr %133, align 8, !tbaa !53
  %135 = getelementptr inbounds nuw %struct.AVStream, ptr %134, i32 0, i32 3
  %136 = load ptr, ptr %135, align 8, !tbaa !62
  %137 = call i32 @avcodec_parameters_copy(ptr noundef %125, ptr noundef %136)
  %138 = load ptr, ptr %15, align 8, !tbaa !53
  %139 = getelementptr inbounds nuw %struct.AVStream, ptr %138, i32 0, i32 5
  %140 = load ptr, ptr %6, align 8, !tbaa !30
  %141 = getelementptr inbounds nuw %struct.SAPState, ptr %140, i32 0, i32 1
  %142 = load ptr, ptr %141, align 8, !tbaa !46
  %143 = getelementptr inbounds nuw %struct.AVFormatContext, ptr %142, i32 0, i32 7
  %144 = load ptr, ptr %143, align 8, !tbaa !63
  %145 = load i32, ptr %14, align 4, !tbaa !33
  %146 = sext i32 %145 to i64
  %147 = getelementptr inbounds ptr, ptr %144, i64 %146
  %148 = load ptr, ptr %147, align 8, !tbaa !53
  %149 = getelementptr inbounds nuw %struct.AVStream, ptr %148, i32 0, i32 5
  call void @llvm.memcpy.p0.p0.i64(ptr align 8 %139, ptr align 8 %149, i64 8, i1 false), !tbaa.struct !64
  store i32 0, ptr %12, align 4
  br label %150

150:                                              ; preds = %119, %118
  call void @llvm.lifetime.end.p0(i64 8, ptr %15) #7
  call void @llvm.lifetime.end.p0(i64 4, ptr %14) #7
  %151 = load i32, ptr %12, align 4
  switch i32 %151, label %156 [
    i32 0, label %152
  ]

152:                                              ; preds = %150
  br label %100, !llvm.loop !75

153:                                              ; preds = %100
  br label %154

154:                                              ; preds = %153, %93
  %155 = load i32, ptr %9, align 4, !tbaa !33
  store i32 %155, ptr %3, align 4
  store i32 1, ptr %12, align 4
  br label %156

156:                                              ; preds = %154, %150, %91, %79, %36, %29
  call void @llvm.lifetime.end.p0(i64 8192, ptr %11) #7
  call void @llvm.lifetime.end.p0(i64 8, ptr %10) #7
  call void @llvm.lifetime.end.p0(i64 4, ptr %9) #7
  call void @llvm.lifetime.end.p0(i64 4, ptr %8) #7
  call void @llvm.lifetime.end.p0(i64 4, ptr %7) #7
  call void @llvm.lifetime.end.p0(i64 8, ptr %6) #7
  %157 = load i32, ptr %3, align 4
  ret i32 %157
}