; Function Attrs: nounwind uwtable
define internal i32 @sap_fetch_packet(ptr noundef %0, ptr noundef %1) #0 {
  %3 = alloca %struct.pollfd, align 4
  %4 = alloca [8192 x i8], align 16
  %5 = getelementptr inbounds nuw i8, ptr %0, i64 24
  %6 = load ptr, ptr %5, align 8, !tbaa !11
  %7 = load ptr, ptr %6, align 8, !tbaa !31
  %8 = tail call i32 @ffurl_get_file_handle(ptr noundef %7) #6
  call void @llvm.lifetime.start.p0(i64 8, ptr nonnull %3) #6
  store i32 %8, ptr %3, align 4, !tbaa !60
  %9 = getelementptr inbounds nuw i8, ptr %3, i64 4
  store i16 1, ptr %9, align 4, !tbaa !62
  %10 = getelementptr inbounds nuw i8, ptr %3, i64 6
  store i16 0, ptr %10, align 2, !tbaa !63
  call void @llvm.lifetime.start.p0(i64 8192, ptr nonnull %4) #6
  %11 = icmp slt i32 %8, 0
  br i1 %11, label %.thread, label %12

12:                                               ; preds = %2
  %13 = getelementptr inbounds nuw i8, ptr %6, i64 312
  %14 = load i32, ptr %13, align 8, !tbaa !64
  %.not = icmp eq i32 %14, 0
  br i1 %.not, label %.preheader46, label %.thread

.preheader46:                                     ; preds = %12
  %15 = call i32 @poll(ptr noundef nonnull %3, i64 noundef 1, i32 noundef 0) #6
  %16 = icmp slt i32 %15, 1
  br i1 %16, label %._crit_edge, label %.lr.ph

.lr.ph:                                           ; preds = %.preheader46
  %17 = getelementptr inbounds nuw i8, ptr %4, i64 2
  %18 = getelementptr inbounds nuw i8, ptr %6, i64 296
  br label %19

19:                                               ; preds = %.lr.ph, %34
  %20 = load i16, ptr %10, align 2, !tbaa !63
  %21 = and i16 %20, 1
  %.not41 = icmp eq i16 %21, 0
  br i1 %.not41, label %._crit_edge, label %22

22:                                               ; preds = %19
  %23 = load ptr, ptr %6, align 8, !tbaa !31
  %24 = call i32 @ffurl_read2(ptr noundef %23, ptr noundef nonnull %4, i32 noundef 8192) #6
  %25 = icmp sgt i32 %24, 7
  br i1 %25, label %26, label %34

26:                                               ; preds = %22
  %27 = load i8, ptr %4, align 16, !tbaa !28
  %28 = and i8 %27, 4
  %.not42 = icmp eq i8 %28, 0
  br i1 %.not42, label %34, label %29

29:                                               ; preds = %26
  %30 = load i16, ptr %17, align 2, !tbaa !28
  %31 = call i16 @llvm.bswap.i16(i16 %30)
  %32 = load i16, ptr %18, align 8, !tbaa !38
  %33 = icmp eq i16 %31, %32
  br i1 %33, label %.critedge, label %34

.critedge:                                        ; preds = %29
  store i32 1, ptr %13, align 8, !tbaa !64
  br label %.thread

34:                                               ; preds = %29, %26, %22
  %35 = call i32 @poll(ptr noundef nonnull %3, i64 noundef 1, i32 noundef 0) #6
  %36 = icmp slt i32 %35, 1
  br i1 %36, label %._crit_edge, label %19

._crit_edge:                                      ; preds = %19, %34, %.preheader46
  %37 = getelementptr inbounds nuw i8, ptr %6, i64 8
  %38 = load ptr, ptr %37, align 8, !tbaa !40
  %39 = call i32 @av_read_frame(ptr noundef %38, ptr noundef %1) #6
  %40 = icmp slt i32 %39, 0
  br i1 %40, label %.thread, label %41

41:                                               ; preds = %._crit_edge
  %42 = getelementptr inbounds nuw i8, ptr %0, i64 40
  %43 = load i32, ptr %42, align 8, !tbaa !45
  %44 = and i32 %43, 1
  %.not43 = icmp eq i32 %44, 0
  br i1 %.not43, label %.thread, label %.preheader

.preheader:                                       ; preds = %41
  %45 = getelementptr inbounds nuw i8, ptr %0, i64 44
  %46 = load ptr, ptr %37, align 8, !tbaa !40
  %47 = getelementptr inbounds nuw i8, ptr %46, i64 44
  %48 = load i32, ptr %47, align 4, !tbaa !46
  %49 = load i32, ptr %45, align 4, !tbaa !46
  %50 = icmp ugt i32 %48, %49
  br i1 %50, label %.lr.ph48, label %.thread

.lr.ph48:                                         ; preds = %.preheader, %53
  %51 = phi i32 [ %77, %53 ], [ %49, %.preheader ]
  %52 = call ptr @avformat_new_stream(ptr noundef nonnull %0, ptr noundef null) #6
  %.not44.not = icmp eq ptr %52, null
  br i1 %.not44.not, label %.thread, label %53

53:                                               ; preds = %.lr.ph48
  %54 = getelementptr inbounds nuw i8, ptr %52, i64 12
  store i32 %51, ptr %54, align 4, !tbaa !47
  %55 = getelementptr inbounds nuw i8, ptr %52, i64 16
  %56 = load ptr, ptr %55, align 8, !tbaa !54
  %57 = load ptr, ptr %37, align 8, !tbaa !40
  %58 = getelementptr inbounds nuw i8, ptr %57, i64 48
  %59 = load ptr, ptr %58, align 8, !tbaa !55
  %60 = sext i32 %51 to i64
  %61 = getelementptr inbounds ptr, ptr %59, i64 %60
  %62 = load ptr, ptr %61, align 8, !tbaa !56
  %63 = getelementptr inbounds nuw i8, ptr %62, i64 16
  %64 = load ptr, ptr %63, align 8, !tbaa !54
  %65 = call i32 @avcodec_parameters_copy(ptr noundef %56, ptr noundef %64) #6
  %66 = getelementptr inbounds nuw i8, ptr %52, i64 32
  %67 = load ptr, ptr %37, align 8, !tbaa !40
  %68 = getelementptr inbounds nuw i8, ptr %67, i64 48
  %69 = load ptr, ptr %68, align 8, !tbaa !55
  %70 = getelementptr inbounds ptr, ptr %69, i64 %60
  %71 = load ptr, ptr %70, align 8, !tbaa !56
  %72 = getelementptr inbounds nuw i8, ptr %71, i64 32
  %73 = load i64, ptr %72, align 8
  store i64 %73, ptr %66, align 8
  %74 = load ptr, ptr %37, align 8, !tbaa !40
  %75 = getelementptr inbounds nuw i8, ptr %74, i64 44
  %76 = load i32, ptr %75, align 4, !tbaa !46
  %77 = load i32, ptr %45, align 4, !tbaa !46
  %78 = icmp ugt i32 %76, %77
  br i1 %78, label %.lr.ph48, label %.thread, !llvm.loop !65

.thread:                                          ; preds = %53, %.lr.ph48, %.preheader, %41, %._crit_edge, %.critedge, %12, %2
  %.0 = phi i32 [ %8, %2 ], [ -541478725, %12 ], [ -541478725, %.critedge ], [ %39, %._crit_edge ], [ %39, %41 ], [ %39, %.preheader ], [ %39, %53 ], [ -12, %.lr.ph48 ]
  call void @llvm.lifetime.end.p0(i64 8192, ptr nonnull %4) #6
  call void @llvm.lifetime.end.p0(i64 8, ptr nonnull %3) #6
  ret i32 %.0
}